; Function Attrs: nounwind uwtable
define dso_local void @unblockClientWaitingReplicas(ptr noundef %c) local_unnamed_addr #0 {
entry:
  %0 = load ptr, ptr getelementptr inbounds (%struct.redisServer, ptr @server, i64 0, i32 311), align 8
  %call = tail call ptr @listSearchKey(ptr noundef %0, ptr noundef %c) #21
  %cmp.not = icmp eq ptr %call, null
  br i1 %cmp.not, label %cond.false, label %cond.end

cond.false:                                       ; preds = %entry
  tail call void @_serverAssert(ptr noundef nonnull @.str.225, ptr noundef nonnull @.str.3, i32 noundef 3613) #21
  tail call void @abort() #24
  unreachable

cond.end:                                         ; preds = %entry
  %1 = load ptr, ptr getelementptr inbounds (%struct.redisServer, ptr @server, i64 0, i32 311), align 8
  tail call void @listDelNode(ptr noundef %1, ptr noundef nonnull %call) #21
  tail call void @updateStatsOnUnblock(ptr noundef %c, i64 noundef 0, i64 noundef 0, i32 noundef 0) #21
  ret void
}